target datalayout = "e-m:e-p270:32:32-p271:32:32-p272:64:64-i64:64-i128:128-f80:128-n8:16:32:64-S128"
target triple = "x86_64-pc-linux-gnu"

%struct._image_pos = type { float, float, float, float }
%struct._image_box = type { i32, i32, i32, i32, i32, i32, i32, i32, i32, i32, %struct._image_pos, %struct._image_pos, %struct._image_pos, ptr }
%struct.dt_images_box = type { i32, i32, i32, [20 x %struct._image_box], float, float, float, float, %struct.dt_screen_pos }
%struct.dt_screen_pos = type { %struct._image_pos, %struct._image_pos, i32 }

; Function Attrs: nounwind uwtable
define void @_compute_rel_pos(ptr noundef %0, ptr noundef %1, ptr noundef %2) #0 {
  %4 = alloca ptr, align 8
  %5 = alloca ptr, align 8
  %6 = alloca ptr, align 8
  %7 = alloca float, align 4
  %8 = alloca float, align 4
  %9 = alloca float, align 4
  %10 = alloca float, align 4
  store ptr %0, ptr %4, align 8, !tbaa !33
  store ptr %1, ptr %5, align 8, !tbaa !6
  store ptr %2, ptr %6, align 8, !tbaa !6
  call void @llvm.lifetime.start.p0(i64 4, ptr %7) #5
  %11 = load ptr, ptr %4, align 8, !tbaa !33
  %12 = getelementptr inbounds nuw %struct.dt_images_box, ptr %11, i32 0, i32 8
  %13 = getelementptr inbounds nuw %struct.dt_screen_pos, ptr %12, i32 0, i32 0
  %14 = getelementptr inbounds nuw %struct._image_pos, ptr %13, i32 0, i32 0
  %15 = load float, ptr %14, align 8, !tbaa !50
  store float %15, ptr %7, align 4, !tbaa !45
  call void @llvm.lifetime.start.p0(i64 4, ptr %8) #5
  %16 = load ptr, ptr %4, align 8, !tbaa !33
  %17 = getelementptr inbounds nuw %struct.dt_images_box, ptr %16, i32 0, i32 8
  %18 = getelementptr inbounds nuw %struct.dt_screen_pos, ptr %17, i32 0, i32 0
  %19 = getelementptr inbounds nuw %struct._image_pos, ptr %18, i32 0, i32 1
  %20 = load float, ptr %19, align 4, !tbaa !51
  store float %20, ptr %8, align 4, !tbaa !45
  call void @llvm.lifetime.start.p0(i64 4, ptr %9) #5
  %21 = load ptr, ptr %4, align 8, !tbaa !33
  %22 = getelementptr inbounds nuw %struct.dt_images_box, ptr %21, i32 0, i32 8
  %23 = getelementptr inbounds nuw %struct.dt_screen_pos, ptr %22, i32 0, i32 0
  %24 = getelementptr inbounds nuw %struct._image_pos, ptr %23, i32 0, i32 2
  %25 = load float, ptr %24, align 8, !tbaa !52
  store float %25, ptr %9, align 4, !tbaa !45
  call void @llvm.lifetime.start.p0(i64 4, ptr %10) #5
  %26 = load ptr, ptr %4, align 8, !tbaa !33
  %27 = getelementptr inbounds nuw %struct.dt_images_box, ptr %26, i32 0, i32 8
  %28 = getelementptr inbounds nuw %struct.dt_screen_pos, ptr %27, i32 0, i32 0
  %29 = getelementptr inbounds nuw %struct._image_pos, ptr %28, i32 0, i32 3
  %30 = load float, ptr %29, align 4, !tbaa !53
  store float %30, ptr %10, align 4, !tbaa !45
  %31 = load ptr, ptr %5, align 8, !tbaa !6
  %32 = getelementptr inbounds nuw %struct._image_pos, ptr %31, i32 0, i32 0
  %33 = load float, ptr %32, align 4, !tbaa !16
  %34 = load float, ptr %7, align 4, !tbaa !45
  %35 = fsub reassoc nsz arcp contract afn float %33, %34
  %36 = load float, ptr %9, align 4, !tbaa !45
  %37 = fdiv reassoc nsz arcp contract afn float %35, %36
  %38 = load ptr, ptr %6, align 8, !tbaa !6
  %39 = getelementptr inbounds nuw %struct._image_pos, ptr %38, i32 0, i32 0
  store float %37, ptr %39, align 4, !tbaa !16
  %40 = load ptr, ptr %5, align 8, !tbaa !6
  %41 = getelementptr inbounds nuw %struct._image_pos, ptr %40, i32 0, i32 1
  %42 = load float, ptr %41, align 4, !tbaa !15
  %43 = load float, ptr %8, align 4, !tbaa !45
  %44 = fsub reassoc nsz arcp contract afn float %42, %43
  %45 = load float, ptr %10, align 4, !tbaa !45
  %46 = fdiv reassoc nsz arcp contract afn float %44, %45
  %47 = load ptr, ptr %6, align 8, !tbaa !6
  %48 = getelementptr inbounds nuw %struct._image_pos, ptr %47, i32 0, i32 1
  store float %46, ptr %48, align 4, !tbaa !15
  %49 = load ptr, ptr %5, align 8, !tbaa !6
  %50 = getelementptr inbounds nuw %struct._image_pos, ptr %49, i32 0, i32 2
  %51 = load float, ptr %50, align 4, !tbaa !14
  %52 = load float, ptr %9, align 4, !tbaa !45
  %53 = fdiv reassoc nsz arcp contract afn float %51, %52
  %54 = load ptr, ptr %6, align 8, !tbaa !6
  %55 = getelementptr inbounds nuw %struct._image_pos, ptr %54, i32 0, i32 2
  store float %53, ptr %55, align 4, !tbaa !14
  %56 = load ptr, ptr %5, align 8, !tbaa !6
  %57 = getelementptr inbounds nuw %struct._image_pos, ptr %56, i32 0, i32 3
  %58 = load float, ptr %57, align 4, !tbaa !11
  %59 = load float, ptr %10, align 4, !tbaa !45
  %60 = fdiv reassoc nsz arcp contract afn float %58, %59
  %61 = load ptr, ptr %6, align 8, !tbaa !6
  %62 = getelementptr inbounds nuw %struct._image_pos, ptr %61, i32 0, i32 3
  store float %60, ptr %62, align 4, !tbaa !11
  call void @llvm.lifetime.end.p0(i64 4, ptr %10) #5
  call void @llvm.lifetime.end.p0(i64 4, ptr %9) #5
  call void @llvm.lifetime.end.p0(i64 4, ptr %8) #5
  call void @llvm.lifetime.end.p0(i64 4, ptr %7) #5
  ret void
}

; Function Attrs: nounwind uwtable
define void @dt_printing_setup_box(ptr noundef %0, i32 noundef %1, float noundef %2, float noundef %3, float noundef %4, float noundef %5) #0 {
  %7 = alloca ptr, align 8
  %8 = alloca i32, align 4
  %9 = alloca float, align 4
  %10 = alloca float, align 4
  %11 = alloca float, align 4
  %12 = alloca float, align 4
  %13 = alloca float, align 4
  %14 = alloca float, align 4
  %15 = alloca ptr, align 8
  %16 = alloca float, align 4
  %17 = alloca float, align 4
  store ptr %0, ptr %7, align 8, !tbaa !33
  store i32 %1, ptr %8, align 4, !tbaa !35
  store float %2, ptr %9, align 4, !tbaa !45
  store float %3, ptr %10, align 4, !tbaa !45
  store float %4, ptr %11, align 4, !tbaa !45
  store float %5, ptr %12, align 4, !tbaa !45
  call void @llvm.lifetime.start.p0(i64 4, ptr %13) #5
  %18 = load ptr, ptr %7, align 8, !tbaa !33
  %19 = getelementptr inbounds nuw %struct.dt_images_box, ptr %18, i32 0, i32 8
  %20 = getelementptr inbounds nuw %struct.dt_screen_pos, ptr %19, i32 0, i32 1
  %21 = getelementptr inbounds nuw %struct._image_pos, ptr %20, i32 0, i32 2
  %22 = load float, ptr %21, align 8, !tbaa !56
  %23 = load float, ptr %11, align 4, !tbaa !45
  %24 = call reassoc nsz arcp contract afn float @llvm.maxnum.f32(float 1.000000e+02, float %23)
  %25 = call reassoc nsz arcp contract afn float @llvm.minnum.f32(float %22, float %24)
  store float %25, ptr %13, align 4, !tbaa !45
  call void @llvm.lifetime.start.p0(i64 4, ptr %14) #5
  %26 = load ptr, ptr %7, align 8, !tbaa !33
  %27 = getelementptr inbounds nuw %struct.dt_images_box, ptr %26, i32 0, i32 8
  %28 = getelementptr inbounds nuw %struct.dt_screen_pos, ptr %27, i32 0, i32 1
  %29 = getelementptr inbounds nuw %struct._image_pos, ptr %28, i32 0, i32 3
  %30 = load float, ptr %29, align 4, !tbaa !57
  %31 = load float, ptr %12, align 4, !tbaa !45
  %32 = call reassoc nsz arcp contract afn float @llvm.maxnum.f32(float 1.000000e+02, float %31)
  %33 = call reassoc nsz arcp contract afn float @llvm.minnum.f32(float %30, float %32)
  store float %33, ptr %14, align 4, !tbaa !45
  call void @llvm.lifetime.start.p0(i64 8, ptr %15) #5
  %34 = load ptr, ptr %7, align 8, !tbaa !33
  %35 = getelementptr inbounds nuw %struct.dt_images_box, ptr %34, i32 0, i32 3
  %36 = load i32, ptr %8, align 4, !tbaa !35
  %37 = sext i32 %36 to i64
  %38 = getelementptr inbounds [20 x %struct._image_box], ptr %35, i64 0, i64 %37
  store ptr %38, ptr %15, align 8, !tbaa !17
  %39 = load ptr, ptr %7, align 8, !tbaa !33
  %40 = getelementptr inbounds nuw %struct.dt_images_box, ptr %39, i32 0, i32 8
  %41 = getelementptr inbounds nuw %struct.dt_screen_pos, ptr %40, i32 0, i32 1
  %42 = getelementptr inbounds nuw %struct._image_pos, ptr %41, i32 0, i32 0
  %43 = load float, ptr %42, align 8, !tbaa !54
  %44 = load float, ptr %9, align 4, !tbaa !45
  %45 = call reassoc nsz arcp contract afn float @llvm.maxnum.f32(float %43, float %44)
  %46 = load ptr, ptr %15, align 8, !tbaa !17
  %47 = getelementptr inbounds nuw %struct._image_box, ptr %46, i32 0, i32 11
  %48 = getelementptr inbounds nuw %struct._image_pos, ptr %47, i32 0, i32 0
  store float %45, ptr %48, align 8, !tbaa !46
  %49 = load ptr, ptr %7, align 8, !tbaa !33
  %50 = getelementptr inbounds nuw %struct.dt_images_box, ptr %49, i32 0, i32 8
  %51 = getelementptr inbounds nuw %struct.dt_screen_pos, ptr %50, i32 0, i32 1
  %52 = getelementptr inbounds nuw %struct._image_pos, ptr %51, i32 0, i32 1
  %53 = load float, ptr %52, align 4, !tbaa !55
  %54 = load float, ptr %10, align 4, !tbaa !45
  %55 = call reassoc nsz arcp contract afn float @llvm.maxnum.f32(float %53, float %54)
  %56 = load ptr, ptr %15, align 8, !tbaa !17
  %57 = getelementptr inbounds nuw %struct._image_box, ptr %56, i32 0, i32 11
  %58 = getelementptr inbounds nuw %struct._image_pos, ptr %57, i32 0, i32 1
  store float %55, ptr %58, align 4, !tbaa !48
  %59 = load float, ptr %13, align 4, !tbaa !45
  %60 = load ptr, ptr %15, align 8, !tbaa !17
  %61 = getelementptr inbounds nuw %struct._image_box, ptr %60, i32 0, i32 11
  %62 = getelementptr inbounds nuw %struct._image_pos, ptr %61, i32 0, i32 2
  store float %59, ptr %62, align 8, !tbaa !47
  %63 = load float, ptr %14, align 4, !tbaa !45
  %64 = load ptr, ptr %15, align 8, !tbaa !17
  %65 = getelementptr inbounds nuw %struct._image_box, ptr %64, i32 0, i32 11
  %66 = getelementptr inbounds nuw %struct._image_pos, ptr %65, i32 0, i32 3
  store float %63, ptr %66, align 4, !tbaa !49
  %67 = load ptr, ptr %15, align 8, !tbaa !17
  %68 = getelementptr inbounds nuw %struct._image_box, ptr %67, i32 0, i32 11
  %69 = getelementptr inbounds nuw %struct._image_pos, ptr %68, i32 0, i32 0
  %70 = load float, ptr %69, align 8, !tbaa !46
  %71 = load float, ptr %13, align 4, !tbaa !45
  %72 = fadd reassoc nsz arcp contract afn float %70, %71
  %73 = load ptr, ptr %7, align 8, !tbaa !33
  %74 = getelementptr inbounds nuw %struct.dt_images_box, ptr %73, i32 0, i32 8
  %75 = getelementptr inbounds nuw %struct.dt_screen_pos, ptr %74, i32 0, i32 1
  %76 = getelementptr inbounds nuw %struct._image_pos, ptr %75, i32 0, i32 0
  %77 = load float, ptr %76, align 8, !tbaa !54
  %78 = load ptr, ptr %7, align 8, !tbaa !33
  %79 = getelementptr inbounds nuw %struct.dt_images_box, ptr %78, i32 0, i32 8
  %80 = getelementptr inbounds nuw %struct.dt_screen_pos, ptr %79, i32 0, i32 1
  %81 = getelementptr inbounds nuw %struct._image_pos, ptr %80, i32 0, i32 2
  %82 = load float, ptr %81, align 8, !tbaa !56
  %83 = fadd reassoc nsz arcp contract afn float %77, %82
  %84 = fcmp reassoc nsz arcp contract afn ogt float %72, %83
  br i1 %84, label %85, label %119

85:                                               ; preds = %6
  call void @llvm.lifetime.start.p0(i64 4, ptr %16) #5
  %86 = load ptr, ptr %15, align 8, !tbaa !17
  %87 = getelementptr inbounds nuw %struct._image_box, ptr %86, i32 0, i32 11
  %88 = getelementptr inbounds nuw %struct._image_pos, ptr %87, i32 0, i32 0
  %89 = load float, ptr %88, align 8, !tbaa !46
  %90 = load float, ptr %13, align 4, !tbaa !45
  %91 = fadd reassoc nsz arcp contract afn float %89, %90
  %92 = load ptr, ptr %7, align 8, !tbaa !33
  %93 = getelementptr inbounds nuw %struct.dt_images_box, ptr %92, i32 0, i32 8
  %94 = getelementptr inbounds nuw %struct.dt_screen_pos, ptr %93, i32 0, i32 1
  %95 = getelementptr inbounds nuw %struct._image_pos, ptr %94, i32 0, i32 0
  %96 = load float, ptr %95, align 8, !tbaa !54
  %97 = fsub reassoc nsz arcp contract afn float %91, %96
  %98 = load ptr, ptr %7, align 8, !tbaa !33
  %99 = getelementptr inbounds nuw %struct.dt_images_box, ptr %98, i32 0, i32 8
  %100 = getelementptr inbounds nuw %struct.dt_screen_pos, ptr %99, i32 0, i32 1
  %101 = getelementptr inbounds nuw %struct._image_pos, ptr %100, i32 0, i32 2
  %102 = load float, ptr %101, align 8, !tbaa !56
  %103 = fsub reassoc nsz arcp contract afn float %97, %102
  store float %103, ptr %16, align 4, !tbaa !45
  %104 = load ptr, ptr %7, align 8, !tbaa !33
  %105 = getelementptr inbounds nuw %struct.dt_images_box, ptr %104, i32 0, i32 8
  %106 = getelementptr inbounds nuw %struct.dt_screen_pos, ptr %105, i32 0, i32 1
  %107 = getelementptr inbounds nuw %struct._image_pos, ptr %106, i32 0, i32 0
  %108 = load float, ptr %107, align 8, !tbaa !54
  %109 = load ptr, ptr %15, align 8, !tbaa !17
  %110 = getelementptr inbounds nuw %struct._image_box, ptr %109, i32 0, i32 11
  %111 = getelementptr inbounds nuw %struct._image_pos, ptr %110, i32 0, i32 0
  %112 = load float, ptr %111, align 8, !tbaa !46
  %113 = load float, ptr %16, align 4, !tbaa !45
  %114 = fsub reassoc nsz arcp contract afn float %112, %113
  %115 = call reassoc nsz arcp contract afn float @llvm.maxnum.f32(float %108, float %114)
  %116 = load ptr, ptr %15, align 8, !tbaa !17
  %117 = getelementptr inbounds nuw %struct._image_box, ptr %116, i32 0, i32 11
  %118 = getelementptr inbounds nuw %struct._image_pos, ptr %117, i32 0, i32 0
  store float %115, ptr %118, align 8, !tbaa !46
  call void @llvm.lifetime.end.p0(i64 4, ptr %16) #5
  br label %119

119:                                              ; preds = %85, %6
  %120 = load ptr, ptr %15, align 8, !tbaa !17
  %121 = getelementptr inbounds nuw %struct._image_box, ptr %120, i32 0, i32 11
  %122 = getelementptr inbounds nuw %struct._image_pos, ptr %121, i32 0, i32 1
  %123 = load float, ptr %122, align 4, !tbaa !48
  %124 = load float, ptr %14, align 4, !tbaa !45
  %125 = fadd reassoc nsz arcp contract afn float %123, %124
  %126 = load ptr, ptr %7, align 8, !tbaa !33
  %127 = getelementptr inbounds nuw %struct.dt_images_box, ptr %126, i32 0, i32 8
  %128 = getelementptr inbounds nuw %struct.dt_screen_pos, ptr %127, i32 0, i32 1
  %129 = getelementptr inbounds nuw %struct._image_pos, ptr %128, i32 0, i32 1
  %130 = load float, ptr %129, align 4, !tbaa !55
  %131 = load ptr, ptr %7, align 8, !tbaa !33
  %132 = getelementptr inbounds nuw %struct.dt_images_box, ptr %131, i32 0, i32 8
  %133 = getelementptr inbounds nuw %struct.dt_screen_pos, ptr %132, i32 0, i32 1
  %134 = getelementptr inbounds nuw %struct._image_pos, ptr %133, i32 0, i32 3
  %135 = load float, ptr %134, align 4, !tbaa !57
  %136 = fadd reassoc nsz arcp contract afn float %130, %135
  %137 = fcmp reassoc nsz arcp contract afn ogt float %125, %136
  br i1 %137, label %138, label %172

138:                                              ; preds = %119
  call void @llvm.lifetime.start.p0(i64 4, ptr %17) #5
  %139 = load ptr, ptr %15, align 8, !tbaa !17
  %140 = getelementptr inbounds nuw %struct._image_box, ptr %139, i32 0, i32 11
  %141 = getelementptr inbounds nuw %struct._image_pos, ptr %140, i32 0, i32 1
  %142 = load float, ptr %141, align 4, !tbaa !48
  %143 = load float, ptr %14, align 4, !tbaa !45
  %144 = fadd reassoc nsz arcp contract afn float %142, %143
  %145 = load ptr, ptr %7, align 8, !tbaa !33
  %146 = getelementptr inbounds nuw %struct.dt_images_box, ptr %145, i32 0, i32 8
  %147 = getelementptr inbounds nuw %struct.dt_screen_pos, ptr %146, i32 0, i32 1
  %148 = getelementptr inbounds nuw %struct._image_pos, ptr %147, i32 0, i32 1
  %149 = load float, ptr %148, align 4, !tbaa !55
  %150 = fsub reassoc nsz arcp contract afn float %144, %149
  %151 = load ptr, ptr %7, align 8, !tbaa !33
  %152 = getelementptr inbounds nuw %struct.dt_images_box, ptr %151, i32 0, i32 8
  %153 = getelementptr inbounds nuw %struct.dt_screen_pos, ptr %152, i32 0, i32 1
  %154 = getelementptr inbounds nuw %struct._image_pos, ptr %153, i32 0, i32 3
  %155 = load float, ptr %154, align 4, !tbaa !57
  %156 = fsub reassoc nsz arcp contract afn float %150, %155
  store float %156, ptr %17, align 4, !tbaa !45
  %157 = load ptr, ptr %7, align 8, !tbaa !33
  %158 = getelementptr inbounds nuw %struct.dt_images_box, ptr %157, i32 0, i32 8
  %159 = getelementptr inbounds nuw %struct.dt_screen_pos, ptr %158, i32 0, i32 1
  %160 = getelementptr inbounds nuw %struct._image_pos, ptr %159, i32 0, i32 1
  %161 = load float, ptr %160, align 4, !tbaa !55
  %162 = load ptr, ptr %15, align 8, !tbaa !17
  %163 = getelementptr inbounds nuw %struct._image_box, ptr %162, i32 0, i32 11
  %164 = getelementptr inbounds nuw %struct._image_pos, ptr %163, i32 0, i32 1
  %165 = load float, ptr %164, align 4, !tbaa !48
  %166 = load float, ptr %17, align 4, !tbaa !45
  %167 = fsub reassoc nsz arcp contract afn float %165, %166
  %168 = call reassoc nsz arcp contract afn float @llvm.maxnum.f32(float %161, float %167)
  %169 = load ptr, ptr %15, align 8, !tbaa !17
  %170 = getelementptr inbounds nuw %struct._image_box, ptr %169, i32 0, i32 11
  %171 = getelementptr inbounds nuw %struct._image_pos, ptr %170, i32 0, i32 1
  store float %168, ptr %171, align 4, !tbaa !48
  call void @llvm.lifetime.end.p0(i64 4, ptr %17) #5
  br label %172

172:                                              ; preds = %138, %119
  %173 = load ptr, ptr %7, align 8, !tbaa !33
  %174 = load ptr, ptr %15, align 8, !tbaa !17
  %175 = getelementptr inbounds nuw %struct._image_box, ptr %174, i32 0, i32 11
  %176 = load ptr, ptr %15, align 8, !tbaa !17
  %177 = getelementptr inbounds nuw %struct._image_box, ptr %176, i32 0, i32 10
  call void @_compute_rel_pos(ptr noundef %173, ptr noundef %175, ptr noundef %177)
  %178 = load i32, ptr %8, align 4, !tbaa !35
  %179 = load ptr, ptr %7, align 8, !tbaa !33
  %180 = getelementptr inbounds nuw %struct.dt_images_box, ptr %179, i32 0, i32 2
  %181 = load i32, ptr %180, align 8, !tbaa !36
  %182 = icmp eq i32 %178, %181
  br i1 %182, label %183, label %188

183:                                              ; preds = %172
  %184 = load ptr, ptr %7, align 8, !tbaa !33
  %185 = getelementptr inbounds nuw %struct.dt_images_box, ptr %184, i32 0, i32 2
  %186 = load i32, ptr %185, align 8, !tbaa !36
  %187 = add nsw i32 %186, 1
  store i32 %187, ptr %185, align 8, !tbaa !36
  br label %188

188:                                              ; preds = %183, %172
  call void @llvm.lifetime.end.p0(i64 8, ptr %15) #5
  call void @llvm.lifetime.end.p0(i64 4, ptr %14) #5
  call void @llvm.lifetime.end.p0(i64 4, ptr %13) #5
  ret void
}