; Function Attrs: mustprogress nofree norecurse nosync nounwind willreturn memory(argmem: readwrite) uwtable
define void @dt_printing_setup_box(ptr noundef captures(none) %0, i32 noundef %1, float noundef %2, float noundef %3, float noundef %4, float noundef %5) local_unnamed_addr #5 {
  %7 = getelementptr inbounds nuw i8, ptr %0, i64 1968
  %8 = getelementptr inbounds nuw i8, ptr %0, i64 1976
  %9 = load float, ptr %8, align 8, !tbaa !34
  %10 = tail call reassoc nsz arcp contract afn float @llvm.maxnum.f32(float %4, float 1.000000e+02)
  %11 = tail call reassoc nsz arcp contract afn float @llvm.minnum.f32(float %9, float %10)
  %12 = getelementptr inbounds nuw i8, ptr %0, i64 1980
  %13 = load float, ptr %12, align 4, !tbaa !35
  %14 = tail call reassoc nsz arcp contract afn float @llvm.maxnum.f32(float %5, float 1.000000e+02)
  %15 = tail call reassoc nsz arcp contract afn float @llvm.minnum.f32(float %13, float %14)
  %16 = getelementptr inbounds nuw i8, ptr %0, i64 16
  %17 = sext i32 %1 to i64
  %18 = getelementptr inbounds [20 x %struct._image_box], ptr %16, i64 0, i64 %17
  %19 = load float, ptr %7, align 8, !tbaa !32
  %20 = tail call reassoc nsz arcp contract afn float @llvm.maxnum.f32(float %19, float %2)
  %21 = getelementptr inbounds nuw i8, ptr %18, i64 56
  store float %20, ptr %21, align 8, !tbaa !20
  %22 = getelementptr inbounds nuw i8, ptr %0, i64 1972
  %23 = load float, ptr %22, align 4, !tbaa !33
  %24 = tail call reassoc nsz arcp contract afn float @llvm.maxnum.f32(float %23, float %3)
  %25 = getelementptr inbounds nuw i8, ptr %18, i64 60
  store float %24, ptr %25, align 4, !tbaa !22
  %26 = getelementptr inbounds nuw i8, ptr %18, i64 64
  store float %11, ptr %26, align 8, !tbaa !21
  %27 = getelementptr inbounds nuw i8, ptr %18, i64 68
  store float %15, ptr %27, align 4, !tbaa !23
  %28 = fadd reassoc nsz arcp contract afn float %20, %11
  %29 = fadd reassoc nsz arcp contract afn float %19, %9
  %30 = fcmp reassoc nsz arcp contract afn ogt float %28, %29
  br i1 %30, label %31, label %34

31:                                               ; preds = %6
  %32 = fsub reassoc nsz arcp contract afn float %29, %11
  %33 = tail call reassoc nsz arcp contract afn float @llvm.maxnum.f32(float %19, float %32)
  store float %33, ptr %21, align 8, !tbaa !20
  br label %34

34:                                               ; preds = %31, %6
  %35 = phi float [ %33, %31 ], [ %20, %6 ]
  %36 = fadd reassoc nsz arcp contract afn float %24, %15
  %37 = fadd reassoc nsz arcp contract afn float %23, %13
  %38 = fcmp reassoc nsz arcp contract afn ogt float %36, %37
  br i1 %38, label %39, label %42

39:                                               ; preds = %34
  %40 = fsub reassoc nsz arcp contract afn float %37, %15
  %41 = tail call reassoc nsz arcp contract afn float @llvm.maxnum.f32(float %23, float %40)
  store float %41, ptr %25, align 4, !tbaa !22
  br label %42

42:                                               ; preds = %39, %34
  %43 = phi float [ %41, %39 ], [ %24, %34 ]
  %44 = getelementptr inbounds nuw i8, ptr %18, i64 40
  %45 = getelementptr inbounds nuw i8, ptr %0, i64 1952
  %46 = load float, ptr %45, align 8, !tbaa !24
  %47 = getelementptr inbounds nuw i8, ptr %0, i64 1956
  %48 = load float, ptr %47, align 4, !tbaa !25
  %49 = getelementptr inbounds nuw i8, ptr %0, i64 1960
  %50 = load float, ptr %49, align 8, !tbaa !26
  %51 = getelementptr inbounds nuw i8, ptr %0, i64 1964
  %52 = load float, ptr %51, align 4, !tbaa !27
  %53 = fsub reassoc nsz arcp contract afn float %35, %46
  %54 = fdiv reassoc nsz arcp contract afn float %53, %50
  store float %54, ptr %44, align 4, !tbaa !28
  %55 = fsub reassoc nsz arcp contract afn float %43, %48
  %56 = fdiv reassoc nsz arcp contract afn float %55, %52
  %57 = getelementptr inbounds nuw i8, ptr %18, i64 44
  store float %56, ptr %57, align 4, !tbaa !29
  %58 = fdiv reassoc nsz arcp contract afn float %11, %50
  %59 = getelementptr inbounds nuw i8, ptr %18, i64 48
  store float %58, ptr %59, align 4, !tbaa !30
  %60 = fdiv reassoc nsz arcp contract afn float %15, %52
  %61 = getelementptr inbounds nuw i8, ptr %18, i64 52
  store float %60, ptr %61, align 4, !tbaa !31
  %62 = getelementptr inbounds nuw i8, ptr %0, i64 8
  %63 = load i32, ptr %62, align 8, !tbaa !15
  %64 = icmp eq i32 %1, %63
  br i1 %64, label %65, label %67

65:                                               ; preds = %42
  %66 = add nsw i32 %1, 1
  store i32 %66, ptr %62, align 8, !tbaa !15
  br label %67

67:                                               ; preds = %65, %42
  ret void
}